target datalayout = "e-m:e-p270:32:32-p271:32:32-p272:64:64-i64:64-i128:128-f80:128-n8:16:32:64-S128"
target triple = "x86_64-pc-linux-gnu"

%struct.assoc_mgr_info_request_msg_t = type { ptr, i32, ptr, ptr }

; Function Attrs: nounwind uwtable
define dso_local void @slurm_free_assoc_mgr_info_request_members(ptr noundef %0) #0 {
  %2 = alloca ptr, align 8
  store ptr %0, ptr %2, align 8
  %3 = load ptr, ptr %2, align 8
  %4 = icmp ne ptr %3, null
  br i1 %4, label %6, label %5

5:                                                ; preds = %1
  br label %45

6:                                                ; preds = %1
  br label %7

7:                                                ; preds = %6
  %8 = load ptr, ptr %2, align 8
  %9 = getelementptr inbounds nuw %struct.assoc_mgr_info_request_msg_t, ptr %8, i32 0, i32 0
  %10 = load ptr, ptr %9, align 8
  %11 = icmp ne ptr %10, null
  br i1 %11, label %12, label %16

12:                                               ; preds = %7
  %13 = load ptr, ptr %2, align 8
  %14 = getelementptr inbounds nuw %struct.assoc_mgr_info_request_msg_t, ptr %13, i32 0, i32 0
  %15 = load ptr, ptr %14, align 8
  call void @list_destroy(ptr noundef %15)
  br label %16

16:                                               ; preds = %12, %7
  %17 = load ptr, ptr %2, align 8
  %18 = getelementptr inbounds nuw %struct.assoc_mgr_info_request_msg_t, ptr %17, i32 0, i32 0
  store ptr null, ptr %18, align 8
  br label %19

19:                                               ; preds = %16
  br label %20

20:                                               ; preds = %19
  %21 = load ptr, ptr %2, align 8
  %22 = getelementptr inbounds nuw %struct.assoc_mgr_info_request_msg_t, ptr %21, i32 0, i32 2
  %23 = load ptr, ptr %22, align 8
  %24 = icmp ne ptr %23, null
  br i1 %24, label %25, label %29

25:                                               ; preds = %20
  %26 = load ptr, ptr %2, align 8
  %27 = getelementptr inbounds nuw %struct.assoc_mgr_info_request_msg_t, ptr %26, i32 0, i32 2
  %28 = load ptr, ptr %27, align 8
  call void @list_destroy(ptr noundef %28)
  br label %29

29:                                               ; preds = %25, %20
  %30 = load ptr, ptr %2, align 8
  %31 = getelementptr inbounds nuw %struct.assoc_mgr_info_request_msg_t, ptr %30, i32 0, i32 2
  store ptr null, ptr %31, align 8
  br label %32

32:                                               ; preds = %29
  br label %33

33:                                               ; preds = %32
  %34 = load ptr, ptr %2, align 8
  %35 = getelementptr inbounds nuw %struct.assoc_mgr_info_request_msg_t, ptr %34, i32 0, i32 3
  %36 = load ptr, ptr %35, align 8
  %37 = icmp ne ptr %36, null
  br i1 %37, label %38, label %42

38:                                               ; preds = %33
  %39 = load ptr, ptr %2, align 8
  %40 = getelementptr inbounds nuw %struct.assoc_mgr_info_request_msg_t, ptr %39, i32 0, i32 3
  %41 = load ptr, ptr %40, align 8
  call void @list_destroy(ptr noundef %41)
  br label %42

42:                                               ; preds = %38, %33
  %43 = load ptr, ptr %2, align 8
  %44 = getelementptr inbounds nuw %struct.assoc_mgr_info_request_msg_t, ptr %43, i32 0, i32 3
  store ptr null, ptr %44, align 8
  br label %45

45:                                               ; preds = %5, %42
  ret void
}