; Function Attrs: nounwind uwtable
define dso_local void @slurm_free_assoc_mgr_info_request_members(ptr noundef captures(address_is_null) %0) local_unnamed_addr #1 {
  %.not = icmp eq ptr %0, null
  br i1 %.not, label %14, label %2

2:                                                ; preds = %1
  %3 = load ptr, ptr %0, align 8
  %.not13 = icmp eq ptr %3, null
  br i1 %.not13, label %5, label %4

4:                                                ; preds = %2
  tail call void @list_destroy(ptr noundef nonnull %3) #24
  br label %5

5:                                                ; preds = %4, %2
  store ptr null, ptr %0, align 8
  %6 = getelementptr inbounds nuw i8, ptr %0, i64 16
  %7 = load ptr, ptr %6, align 8
  %.not14 = icmp eq ptr %7, null
  br i1 %.not14, label %9, label %8

8:                                                ; preds = %5
  tail call void @list_destroy(ptr noundef nonnull %7) #24
  br label %9

9:                                                ; preds = %8, %5
  store ptr null, ptr %6, align 8
  %10 = getelementptr inbounds nuw i8, ptr %0, i64 24
  %11 = load ptr, ptr %10, align 8
  %.not15 = icmp eq ptr %11, null
  br i1 %.not15, label %13, label %12

12:                                               ; preds = %9
  tail call void @list_destroy(ptr noundef nonnull %11) #24
  br label %13

13:                                               ; preds = %12, %9
  store ptr null, ptr %10, align 8
  br label %14

14:                                               ; preds = %1, %13
  ret void
}